; Function Attrs: null_pointer_is_valid sspstrong uwtable
define internal fastcc noundef i32 @dissect_kafka_sasl_handshake_response(ptr noundef %0, ptr noundef %1, ptr noundef %2, i32 noundef %3) unnamed_addr #0 {
  %5 = alloca ptr, align 8
  call void @llvm.lifetime.start.p0(i64 8, ptr nonnull %5) #9
  %6 = tail call zeroext i16 @tvb_get_ntohs(ptr noundef %0, i32 noundef %3)
  %7 = load i32, ptr @hf_kafka_error, align 4
  %8 = tail call ptr @proto_tree_add_item(ptr noundef %2, i32 noundef %7, ptr noundef %0, i32 noundef %3, i32 noundef 2, i32 noundef 0)
  %.not.i.i = icmp eq i16 %6, 0
  br i1 %.not.i.i, label %dissect_kafka_error.exit, label %9

9:                                                ; preds = %4
  %10 = getelementptr inbounds nuw i8, ptr %1, i64 8
  %11 = load ptr, ptr %10, align 8
  %12 = sext i16 %6 to i32
  %13 = tail call ptr @val_to_str(i32 noundef %12, ptr noundef nonnull @kafka_errors, ptr noundef nonnull @.str.628)
  tail call void (ptr, i32, ptr, ...) @col_append_fstr(ptr noundef %11, i32 noundef 25, ptr noundef nonnull @.str.742, ptr noundef %13)
  br label %dissect_kafka_error.exit

dissect_kafka_error.exit:                         ; preds = %4, %9
  %14 = add i32 %3, 2
  %15 = load i32, ptr @ett_kafka_sasl_enabled_mechanisms, align 4
  %16 = call ptr @proto_tree_add_subtree(ptr noundef %2, ptr noundef %0, i32 noundef %14, i32 noundef -1, i32 noundef %15, ptr noundef nonnull %5, ptr noundef nonnull @.str.760)
  %17 = call i32 @tvb_get_ntohl(ptr noundef %0, i32 noundef %14)
  %18 = add i32 %3, 6
  %19 = icmp slt i32 %17, -1
  br i1 %19, label %dissect_kafka_array.exit.sink.split, label %20

20:                                               ; preds = %dissect_kafka_error.exit
  %21 = call i32 @tvb_reported_length_remaining(ptr noundef %0, i32 noundef %18)
  %22 = icmp slt i32 %21, %17
  br i1 %22, label %dissect_kafka_array.exit.sink.split, label %.preheader.i.i15.i

.preheader.i.i15.i:                               ; preds = %20
  %23 = icmp sgt i32 %17, 0
  br i1 %23, label %.lr.ph.i.i20.i, label %dissect_kafka_array.exit

24:                                               ; preds = %.lr.ph.i.i20.i
  %25 = add nuw nsw i32 %.02127.i.i21.i, 1
  %exitcond.not.i.i23.i = icmp eq i32 %25, %17
  br i1 %exitcond.not.i.i23.i, label %dissect_kafka_array.exit, label %.lr.ph.i.i20.i, !llvm.loop !11

.lr.ph.i.i20.i:                                   ; preds = %.preheader.i.i15.i, %24
  %.02127.i.i21.i = phi i32 [ %25, %24 ], [ 0, %.preheader.i.i15.i ]
  %.02226.i.i22.i = phi i32 [ %27, %24 ], [ %18, %.preheader.i.i15.i ]
  %26 = load i32, ptr @hf_kafka_sasl_mechanism, align 4
  %27 = call fastcc i32 @dissect_kafka_string(ptr noundef %16, i32 noundef %26, ptr noundef %0, ptr noundef %1, i32 noundef %.02226.i.i22.i, i32 noundef 0, ptr noundef null, ptr noundef null)
  %28 = icmp eq i32 %27, %.02226.i.i22.i
  br i1 %28, label %dissect_kafka_array.exit.sink.split, label %24

dissect_kafka_array.exit.sink.split:              ; preds = %.lr.ph.i.i20.i, %20, %dissect_kafka_error.exit
  %ei_kafka_zero_field_length.sink.i.i25.i.sink = phi ptr [ @ei_kafka_bad_array_length, %dissect_kafka_error.exit ], [ @ei_kafka_bad_array_length, %20 ], [ @ei_kafka_zero_field_length, %.lr.ph.i.i20.i ]
  %.0.i.ph = phi i32 [ %18, %dissect_kafka_error.exit ], [ %18, %20 ], [ %.02226.i.i22.i, %.lr.ph.i.i20.i ]
  %29 = call ptr @proto_tree_get_parent(ptr noundef %16)
  %30 = call ptr @expert_add_info(ptr noundef %1, ptr noundef %29, ptr noundef nonnull %ei_kafka_zero_field_length.sink.i.i25.i.sink)
  br label %dissect_kafka_array.exit

dissect_kafka_array.exit:                         ; preds = %24, %dissect_kafka_array.exit.sink.split, %.preheader.i.i15.i
  %.0.i = phi i32 [ %18, %.preheader.i.i15.i ], [ %.0.i.ph, %dissect_kafka_array.exit.sink.split ], [ %27, %24 ]
  %31 = load ptr, ptr %5, align 8
  call void @proto_item_set_end(ptr noundef %31, ptr noundef %0, i32 noundef %.0.i)
  call void @llvm.lifetime.end.p0(i64 8, ptr nonnull %5) #9
  ret i32 %.0.i
}